; Function Attrs: mustprogress uwtable
define dso_local void @_ZN11cmXMLWriter7CommentEPKc(ptr noundef nonnull align 8 captures(none) dereferenceable(83) %0, ptr noundef %1) local_unnamed_addr #0 align 2 {
  %3 = alloca i8, align 1
  tail call void @_ZN11cmXMLWriter17CloseStartElementEv(ptr noundef nonnull align 8 dereferenceable(83) %0)
  %4 = getelementptr inbounds nuw i8, ptr %0, i64 82
  %5 = load i8, ptr %4, align 2, !tbaa !45, !range !46, !noundef !47
  %6 = trunc nuw i8 %5 to i1
  br i1 %6, label %_ZN11cmXMLWriter20ConditionalLineBreakEb.exit, label %7

7:                                                ; preds = %2
  %8 = load ptr, ptr %0, align 8, !tbaa !31
  call void @llvm.lifetime.start.p0(i64 1, ptr nonnull %3)
  store i8 10, ptr %3, align 1, !tbaa !27
  %9 = load ptr, ptr %8, align 8, !tbaa !32
  %10 = getelementptr i8, ptr %9, i64 -24
  %11 = load i64, ptr %10, align 8
  %12 = getelementptr inbounds i8, ptr %8, i64 %11
  %13 = getelementptr inbounds nuw i8, ptr %12, i64 16
  %14 = load i64, ptr %13, align 8, !tbaa !44
  %.not.i.i = icmp eq i64 %14, 0
  br i1 %.not.i.i, label %17, label %15

15:                                               ; preds = %7
  %16 = call noundef nonnull align 8 dereferenceable(8) ptr @_ZSt16__ostream_insertIcSt11char_traitsIcEERSt13basic_ostreamIT_T0_ES6_PKS3_l(ptr noundef nonnull align 8 dereferenceable(8) %8, ptr noundef nonnull %3, i64 noundef 1)
  br label %_ZStlsISt11char_traitsIcEERSt13basic_ostreamIcT_ES5_c.exit.i

17:                                               ; preds = %7
  %18 = tail call noundef nonnull align 8 dereferenceable(8) ptr @_ZNSo3putEc(ptr noundef nonnull align 8 dereferenceable(8) %8, i8 noundef signext 10)
  br label %_ZStlsISt11char_traitsIcEERSt13basic_ostreamIcT_ES5_c.exit.i

_ZStlsISt11char_traitsIcEERSt13basic_ostreamIcT_ES5_c.exit.i: ; preds = %17, %15
  call void @llvm.lifetime.end.p0(i64 1, ptr nonnull %3)
  %19 = getelementptr inbounds nuw i8, ptr %0, i64 72
  %20 = getelementptr inbounds nuw i8, ptr %0, i64 64
  %21 = load i64, ptr %19, align 8, !tbaa !48
  %22 = load i64, ptr %20, align 8, !tbaa !12
  %23 = sub i64 0, %21
  %.not.i = icmp eq i64 %22, %23
  br i1 %.not.i, label %_ZN11cmXMLWriter20ConditionalLineBreakEb.exit, label %.lr.ph.i

.lr.ph.i:                                         ; preds = %_ZStlsISt11char_traitsIcEERSt13basic_ostreamIcT_ES5_c.exit.i
  %24 = getelementptr inbounds nuw i8, ptr %0, i64 32
  %25 = getelementptr inbounds nuw i8, ptr %0, i64 40
  br label %26

26:                                               ; preds = %26, %.lr.ph.i
  %.03.i = phi i64 [ 0, %.lr.ph.i ], [ %31, %26 ]
  %27 = load ptr, ptr %0, align 8, !tbaa !31
  %28 = load ptr, ptr %24, align 8, !tbaa !25
  %29 = load i64, ptr %25, align 8, !tbaa !26
  %30 = call noundef nonnull align 8 dereferenceable(8) ptr @_ZSt16__ostream_insertIcSt11char_traitsIcEERSt13basic_ostreamIT_T0_ES6_PKS3_l(ptr noundef nonnull align 8 dereferenceable(8) %27, ptr noundef %28, i64 noundef %29)
  %31 = add nuw i64 %.03.i, 1
  %32 = load i64, ptr %19, align 8, !tbaa !48
  %33 = load i64, ptr %20, align 8, !tbaa !12
  %34 = add i64 %33, %32
  %35 = icmp ult i64 %31, %34
  br i1 %35, label %26, label %_ZN11cmXMLWriter20ConditionalLineBreakEb.exit, !llvm.loop !49

_ZN11cmXMLWriter20ConditionalLineBreakEb.exit:    ; preds = %26, %2, %_ZStlsISt11char_traitsIcEERSt13basic_ostreamIcT_ES5_c.exit.i
  %36 = load ptr, ptr %0, align 8, !tbaa !31
  %37 = call noundef nonnull align 8 dereferenceable(8) ptr @_ZSt16__ostream_insertIcSt11char_traitsIcEERSt13basic_ostreamIT_T0_ES6_PKS3_l(ptr noundef nonnull align 8 dereferenceable(8) %36, ptr noundef nonnull @.str.4, i64 noundef 5)
  %.not.i2 = icmp eq ptr %1, null
  br i1 %.not.i2, label %38, label %46

38:                                               ; preds = %_ZN11cmXMLWriter20ConditionalLineBreakEb.exit
  %39 = load ptr, ptr %36, align 8, !tbaa !32
  %40 = getelementptr i8, ptr %39, i64 -24
  %41 = load i64, ptr %40, align 8
  %42 = getelementptr inbounds i8, ptr %36, i64 %41
  %43 = getelementptr inbounds nuw i8, ptr %42, i64 32
  %44 = load i32, ptr %43, align 8, !tbaa !34
  %45 = or i32 %44, 1
  call void @_ZNSt9basic_iosIcSt11char_traitsIcEE5clearESt12_Ios_Iostate(ptr noundef nonnull align 8 dereferenceable(264) %42, i32 noundef %45)
  br label %_ZStlsISt11char_traitsIcEERSt13basic_ostreamIcT_ES5_PKc.exit

46:                                               ; preds = %_ZN11cmXMLWriter20ConditionalLineBreakEb.exit
  %47 = call noundef i64 @strlen(ptr noundef nonnull dereferenceable(1) %1) #17
  %48 = call noundef nonnull align 8 dereferenceable(8) ptr @_ZSt16__ostream_insertIcSt11char_traitsIcEERSt13basic_ostreamIT_T0_ES6_PKS3_l(ptr noundef nonnull align 8 dereferenceable(8) %36, ptr noundef nonnull %1, i64 noundef %47)
  br label %_ZStlsISt11char_traitsIcEERSt13basic_ostreamIcT_ES5_PKc.exit

_ZStlsISt11char_traitsIcEERSt13basic_ostreamIcT_ES5_PKc.exit: ; preds = %38, %46
  %49 = call noundef nonnull align 8 dereferenceable(8) ptr @_ZSt16__ostream_insertIcSt11char_traitsIcEERSt13basic_ostreamIT_T0_ES6_PKS3_l(ptr noundef nonnull align 8 dereferenceable(8) %36, ptr noundef nonnull @.str.5, i64 noundef 4)
  ret void
}